; Function Attrs: mustprogress uwtable
define void @_ZN8facebook3jsi7JSErrorC2ERNS0_7RuntimeEONS0_5ValueE(ptr noundef nonnull align 8 dereferenceable(120) %this, ptr noundef nonnull align 8 dereferenceable(8) %rt, ptr noundef nonnull align 8 dereferenceable(16) %value) unnamed_addr #11 align 2 personality ptr @__gxx_personality_v0 {
entry:
  store ptr getelementptr inbounds ({ [5 x ptr] }, ptr @_ZTVN8facebook3jsi12JSIExceptionE, i64 0, i32 0, i64 2), ptr %this, align 8
  %what_.i = getelementptr inbounds i8, ptr %this, i64 8
  tail call void @_ZNSt7__cxx1112basic_stringIcSt11char_traitsIcESaIcEEC1Ev(ptr noundef nonnull align 8 dereferenceable(32) %what_.i) #23
  store ptr getelementptr inbounds ({ [5 x ptr] }, ptr @_ZTVN8facebook3jsi7JSErrorE, i64 0, i32 0, i64 2), ptr %this, align 8
  %value_ = getelementptr inbounds i8, ptr %this, i64 40
  tail call void @llvm.memset.p0.i64(ptr noundef nonnull align 8 dereferenceable(16) %value_, i8 0, i64 16, i1 false)
  %message_ = getelementptr inbounds i8, ptr %this, i64 56
  tail call void @_ZNSt7__cxx1112basic_stringIcSt11char_traitsIcESaIcEEC1Ev(ptr noundef nonnull align 8 dereferenceable(32) %message_) #23
  %stack_ = getelementptr inbounds i8, ptr %this, i64 88
  tail call void @_ZNSt7__cxx1112basic_stringIcSt11char_traitsIcESaIcEEC1Ev(ptr noundef nonnull align 8 dereferenceable(32) %stack_) #23
  invoke void @_ZN8facebook3jsi7JSError8setValueERNS0_7RuntimeEONS0_5ValueE(ptr noundef nonnull align 8 dereferenceable(120) %this, ptr noundef nonnull align 8 dereferenceable(8) %rt, ptr noundef nonnull align 8 dereferenceable(16) %value)
          to label %invoke.cont unwind label %lpad

invoke.cont:                                      ; preds = %entry
  ret void

lpad:                                             ; preds = %entry
  %0 = landingpad { ptr, i32 }
          cleanup
  tail call void @_ZNSt7__cxx1112basic_stringIcSt11char_traitsIcESaIcEED1Ev(ptr noundef nonnull align 8 dereferenceable(32) %stack_) #23
  tail call void @_ZNSt7__cxx1112basic_stringIcSt11char_traitsIcESaIcEED1Ev(ptr noundef nonnull align 8 dereferenceable(32) %message_) #23
  tail call void @_ZNSt10shared_ptrIN8facebook3jsi5ValueEED2Ev(ptr noundef nonnull align 8 dereferenceable(16) %value_) #23
  store ptr getelementptr inbounds ({ [5 x ptr] }, ptr @_ZTVN8facebook3jsi12JSIExceptionE, i64 0, i32 0, i64 2), ptr %this, align 8
  tail call void @_ZNSt7__cxx1112basic_stringIcSt11char_traitsIcESaIcEED1Ev(ptr noundef nonnull align 8 dereferenceable(32) %what_.i) #23
  tail call void @_ZNSt9exceptionD2Ev(ptr noundef nonnull align 8 dereferenceable(8) %this) #23
  resume { ptr, i32 } %0
}